target datalayout = "e-m:e-p270:32:32-p271:32:32-p272:64:64-i64:64-i128:128-f80:128-n8:16:32:64-S128"
target triple = "x86_64-pc-linux-gnu"

%"class.std::__cxx11::basic_string" = type { %"struct.std::__cxx11::basic_string<char>::_Alloc_hider", i64, %union.anon }
%"struct.std::__cxx11::basic_string<char>::_Alloc_hider" = type { ptr }
%union.anon = type { i64, [8 x i8] }
%"struct.std::__detail::_List_node_header" = type { %"struct.std::__detail::_List_node_base", i64 }
%"struct.std::__detail::_List_node_base" = type { ptr, ptr }
%"struct.std::_Rb_tree_key_compare" = type { %"struct.std::less" }
%"struct.std::less" = type { i8 }
%"struct.std::_Rb_tree_header" = type { %"struct.std::_Rb_tree_node_base", i64 }
%"struct.std::_Rb_tree_node_base" = type { i32, ptr, ptr, ptr }
%"class.glslang::TProgram" = type <{ ptr, ptr, [14 x %"class.std::__cxx11::list.104"], [14 x ptr], [14 x i8], [2 x i8], ptr, ptr, i8, [7 x i8] }>
%"class.std::__cxx11::list.104" = type { %"class.std::__cxx11::_List_base.105" }
%"class.std::__cxx11::_List_base.105" = type { %"struct.std::__cxx11::_List_base<glslang::TShader *, std::allocator<glslang::TShader *>>::_List_impl" }
%"struct.std::__cxx11::_List_base<glslang::TShader *, std::allocator<glslang::TShader *>>::_List_impl" = type { %"struct.std::__detail::_List_node_header" }
%"class.glslang::TObjectReflection" = type { %"class.std::__cxx11::basic_string", i32, i32, i32, i32, i32, i32, i32, i32, i32, i32, ptr }
%"class.glslang::TReflection" = type <{ ptr, i32, i32, i32, [4 x i8], %"class.glslang::TObjectReflection", %"class.std::map.109", %"class.std::map.109", %"class.std::map.109", %"class.std::vector.114", %"class.std::vector.114", %"class.std::vector.114", %"class.std::vector.114", %"class.std::vector.114", %"class.std::vector.114", %"class.std::vector.119", [3 x i32], [4 x i8] }>
%"class.std::map.109" = type { %"class.std::_Rb_tree.110" }
%"class.std::_Rb_tree.110" = type { %"struct.std::_Rb_tree<std::__cxx11::basic_string<char>, std::pair<const std::__cxx11::basic_string<char>, int>, std::_Select1st<std::pair<const std::__cxx11::basic_string<char>, int>>, std::less<std::__cxx11::basic_string<char>>>::_Rb_tree_impl" }
%"struct.std::_Rb_tree<std::__cxx11::basic_string<char>, std::pair<const std::__cxx11::basic_string<char>, int>, std::_Select1st<std::pair<const std::__cxx11::basic_string<char>, int>>, std::less<std::__cxx11::basic_string<char>>>::_Rb_tree_impl" = type { %"struct.std::_Rb_tree_key_compare", %"struct.std::_Rb_tree_header" }
%"class.std::vector.114" = type { %"struct.std::_Vector_base.115" }
%"struct.std::_Vector_base.115" = type { %"struct.std::_Vector_base<glslang::TObjectReflection, std::allocator<glslang::TObjectReflection>>::_Vector_impl" }
%"struct.std::_Vector_base<glslang::TObjectReflection, std::allocator<glslang::TObjectReflection>>::_Vector_impl" = type { %"struct.std::_Vector_base<glslang::TObjectReflection, std::allocator<glslang::TObjectReflection>>::_Vector_impl_data" }
%"struct.std::_Vector_base<glslang::TObjectReflection, std::allocator<glslang::TObjectReflection>>::_Vector_impl_data" = type { ptr, ptr, ptr }
%"class.std::vector.119" = type { %"struct.std::_Vector_base.120" }
%"struct.std::_Vector_base.120" = type { %"struct.std::_Vector_base<int, std::allocator<int>>::_Vector_impl" }
%"struct.std::_Vector_base<int, std::allocator<int>>::_Vector_impl" = type { %"struct.std::_Vector_base<int, std::allocator<int>>::_Vector_impl_data" }
%"struct.std::_Vector_base<int, std::allocator<int>>::_Vector_impl_data" = type { ptr, ptr, ptr }

; Function Attrs: mustprogress nounwind uwtable
define linkonce_odr noundef nonnull align 8 dereferenceable(80) ptr @_ZNKSt6vectorIN7glslang17TObjectReflectionESaIS1_EEixEm(ptr noundef nonnull align 8 dereferenceable(24) %0, i64 noundef %1) #4 comdat align 2 {
  %3 = alloca ptr, align 8
  %4 = alloca i64, align 8
  store ptr %0, ptr %3, align 8
  store i64 %1, ptr %4, align 8
  %5 = load ptr, ptr %3, align 8
  %6 = getelementptr inbounds %"struct.std::_Vector_base.115", ptr %5, i32 0, i32 0
  %7 = getelementptr inbounds %"struct.std::_Vector_base<glslang::TObjectReflection, std::allocator<glslang::TObjectReflection>>::_Vector_impl_data", ptr %6, i32 0, i32 0
  %8 = load ptr, ptr %7, align 8
  %9 = load i64, ptr %4, align 8
  %10 = getelementptr inbounds %"class.glslang::TObjectReflection", ptr %8, i64 %9
  ret ptr %10
}

; Function Attrs: mustprogress nounwind uwtable
define linkonce_odr noundef i64 @_ZNKSt6vectorIN7glslang17TObjectReflectionESaIS1_EE4sizeEv(ptr noundef nonnull align 8 dereferenceable(24) %0) #4 comdat align 2 {
  %2 = alloca ptr, align 8
  store ptr %0, ptr %2, align 8
  %3 = load ptr, ptr %2, align 8
  %4 = getelementptr inbounds %"struct.std::_Vector_base.115", ptr %3, i32 0, i32 0
  %5 = getelementptr inbounds %"struct.std::_Vector_base<glslang::TObjectReflection, std::allocator<glslang::TObjectReflection>>::_Vector_impl_data", ptr %4, i32 0, i32 1
  %6 = load ptr, ptr %5, align 8
  %7 = getelementptr inbounds %"struct.std::_Vector_base.115", ptr %3, i32 0, i32 0
  %8 = getelementptr inbounds %"struct.std::_Vector_base<glslang::TObjectReflection, std::allocator<glslang::TObjectReflection>>::_Vector_impl_data", ptr %7, i32 0, i32 0
  %9 = load ptr, ptr %8, align 8
  %10 = ptrtoint ptr %6 to i64
  %11 = ptrtoint ptr %9 to i64
  %12 = sub i64 %10, %11
  %13 = sdiv exact i64 %12, 80
  ret i64 %13
}

; Function Attrs: mustprogress nounwind uwtable
define linkonce_odr noundef nonnull align 8 dereferenceable(80) ptr @_ZNK7glslang11TReflection10getUniformEi(ptr noundef nonnull align 8 dereferenceable(428) %0, i32 noundef %1) #4 comdat align 2 {
  %3 = alloca ptr, align 8
  %4 = alloca ptr, align 8
  %5 = alloca i32, align 4
  store ptr %0, ptr %4, align 8
  store i32 %1, ptr %5, align 4
  %6 = load ptr, ptr %4, align 8
  %7 = load i32, ptr %5, align 4
  %8 = icmp sge i32 %7, 0
  br i1 %8, label %9, label %20

9:                                                ; preds = %2
  %10 = load i32, ptr %5, align 4
  %11 = getelementptr inbounds %"class.glslang::TReflection", ptr %6, i32 0, i32 9
  %12 = call noundef i64 @_ZNKSt6vectorIN7glslang17TObjectReflectionESaIS1_EE4sizeEv(ptr noundef nonnull align 8 dereferenceable(24) %11) #3
  %13 = trunc i64 %12 to i32
  %14 = icmp slt i32 %10, %13
  br i1 %14, label %15, label %20

15:                                               ; preds = %9
  %16 = getelementptr inbounds %"class.glslang::TReflection", ptr %6, i32 0, i32 9
  %17 = load i32, ptr %5, align 4
  %18 = sext i32 %17 to i64
  %19 = call noundef nonnull align 8 dereferenceable(80) ptr @_ZNKSt6vectorIN7glslang17TObjectReflectionESaIS1_EEixEm(ptr noundef nonnull align 8 dereferenceable(24) %16, i64 noundef %18) #3
  store ptr %19, ptr %3, align 8
  br label %22

20:                                               ; preds = %9, %2
  %21 = getelementptr inbounds %"class.glslang::TReflection", ptr %6, i32 0, i32 5
  store ptr %21, ptr %3, align 8
  br label %22

22:                                               ; preds = %20, %15
  %23 = load ptr, ptr %3, align 8
  ret ptr %23
}

; Function Attrs: mustprogress nounwind uwtable
define noundef nonnull align 8 dereferenceable(80) ptr @_ZNK7glslang8TProgram10getUniformEi(ptr noundef nonnull align 8 dereferenceable(497) %0, i32 noundef %1) #4 align 2 {
  %3 = alloca ptr, align 8
  %4 = alloca i32, align 4
  store ptr %0, ptr %3, align 8
  store i32 %1, ptr %4, align 4
  %5 = load ptr, ptr %3, align 8
  %6 = getelementptr inbounds %"class.glslang::TProgram", ptr %5, i32 0, i32 7
  %7 = load ptr, ptr %6, align 8
  %8 = load i32, ptr %4, align 4
  %9 = call noundef nonnull align 8 dereferenceable(80) ptr @_ZNK7glslang11TReflection10getUniformEi(ptr noundef nonnull align 8 dereferenceable(428) %7, i32 noundef %8)
  ret ptr %9
}