; Function Attrs: mustprogress nofree norecurse nosync nounwind willreturn memory(read, inaccessiblemem: none) uwtable
define noundef nonnull align 8 dereferenceable(80) ptr @_ZNK7glslang8TProgram10getUniformEi(ptr noundef nonnull readonly align 8 captures(none) dereferenceable(497) %0, i32 noundef %1) local_unnamed_addr #10 align 2 {
  %3 = getelementptr inbounds nuw i8, ptr %0, i64 488
  %4 = load ptr, ptr %3, align 8
  %5 = icmp sgt i32 %1, -1
  br i1 %5, label %6, label %20

6:                                                ; preds = %2
  %7 = getelementptr inbounds nuw i8, ptr %4, i64 248
  %8 = getelementptr inbounds nuw i8, ptr %4, i64 256
  %9 = load ptr, ptr %8, align 8
  %10 = load ptr, ptr %7, align 8
  %11 = ptrtoint ptr %9 to i64
  %12 = ptrtoint ptr %10 to i64
  %13 = sub i64 %11, %12
  %14 = sdiv exact i64 %13, 80
  %15 = trunc i64 %14 to i32
  %16 = icmp slt i32 %1, %15
  br i1 %16, label %17, label %20

17:                                               ; preds = %6
  %18 = zext nneg i32 %1 to i64
  %19 = getelementptr inbounds nuw %"class.glslang::TObjectReflection", ptr %10, i64 %18
  br label %_ZNK7glslang11TReflection10getUniformEi.exit

20:                                               ; preds = %6, %2
  %21 = getelementptr inbounds nuw i8, ptr %4, i64 24
  br label %_ZNK7glslang11TReflection10getUniformEi.exit

_ZNK7glslang11TReflection10getUniformEi.exit:     ; preds = %17, %20
  %.0.i = phi ptr [ %19, %17 ], [ %21, %20 ]
  ret ptr %.0.i
}